target datalayout = "e-m:e-p270:32:32-p271:32:32-p272:64:64-i64:64-i128:128-f80:128-n8:16:32:64-S128"
target triple = "x86_64-pc-linux-gnu"

%struct.PGNoticeHooks = type { ptr, ptr, ptr, ptr }
%struct.PGEvent = type { ptr, ptr, ptr, ptr, i8 }
%struct.pg_result = type { i32, i32, ptr, ptr, i32, i32, ptr, i32, [64 x i8], i32, %struct.PGNoticeHooks, ptr, i32, i32, ptr, ptr, ptr, [1 x i8], ptr, i32, i32, i64 }
%struct.PGEventResultCreate = type { ptr, ptr }

; Function Attrs: nounwind uwtable
define i32 @PQfireResultCreateEvents(ptr noundef %0, ptr noundef %1) #0 {
  %3 = alloca i32, align 4
  %4 = alloca ptr, align 8
  %5 = alloca ptr, align 8
  %6 = alloca i32, align 4
  %7 = alloca i32, align 4
  %8 = alloca i32, align 4
  %9 = alloca %struct.PGEventResultCreate, align 8
  store ptr %0, ptr %4, align 8
  store ptr %1, ptr %5, align 8
  call void @llvm.lifetime.start.p0(i64 4, ptr %6) #5
  store i32 1, ptr %6, align 4
  call void @llvm.lifetime.start.p0(i64 4, ptr %7) #5
  %10 = load ptr, ptr %5, align 8
  %11 = icmp ne ptr %10, null
  br i1 %11, label %13, label %12

12:                                               ; preds = %2
  store i32 0, ptr %3, align 4
  store i32 1, ptr %8, align 4
  br label %69

13:                                               ; preds = %2
  store i32 0, ptr %7, align 4
  br label %14

14:                                               ; preds = %64, %13
  %15 = load i32, ptr %7, align 4
  %16 = load ptr, ptr %5, align 8
  %17 = getelementptr inbounds nuw %struct.pg_result, ptr %16, i32 0, i32 12
  %18 = load i32, ptr %17, align 8
  %19 = icmp slt i32 %15, %18
  br i1 %19, label %20, label %67

20:                                               ; preds = %14
  %21 = load ptr, ptr %5, align 8
  %22 = getelementptr inbounds nuw %struct.pg_result, ptr %21, i32 0, i32 11
  %23 = load ptr, ptr %22, align 8
  %24 = load i32, ptr %7, align 4
  %25 = sext i32 %24 to i64
  %26 = getelementptr inbounds %struct.PGEvent, ptr %23, i64 %25
  %27 = getelementptr inbounds nuw %struct.PGEvent, ptr %26, i32 0, i32 4
  %28 = load i8, ptr %27, align 8, !range !9, !noundef !10
  %29 = trunc i8 %28 to i1
  br i1 %29, label %63, label %30

30:                                               ; preds = %20
  call void @llvm.lifetime.start.p0(i64 16, ptr %9) #5
  %31 = load ptr, ptr %4, align 8
  %32 = getelementptr inbounds nuw %struct.PGEventResultCreate, ptr %9, i32 0, i32 0
  store ptr %31, ptr %32, align 8
  %33 = load ptr, ptr %5, align 8
  %34 = getelementptr inbounds nuw %struct.PGEventResultCreate, ptr %9, i32 0, i32 1
  store ptr %33, ptr %34, align 8
  %35 = load ptr, ptr %5, align 8
  %36 = getelementptr inbounds nuw %struct.pg_result, ptr %35, i32 0, i32 11
  %37 = load ptr, ptr %36, align 8
  %38 = load i32, ptr %7, align 4
  %39 = sext i32 %38 to i64
  %40 = getelementptr inbounds %struct.PGEvent, ptr %37, i64 %39
  %41 = getelementptr inbounds nuw %struct.PGEvent, ptr %40, i32 0, i32 0
  %42 = load ptr, ptr %41, align 8
  %43 = load ptr, ptr %5, align 8
  %44 = getelementptr inbounds nuw %struct.pg_result, ptr %43, i32 0, i32 11
  %45 = load ptr, ptr %44, align 8
  %46 = load i32, ptr %7, align 4
  %47 = sext i32 %46 to i64
  %48 = getelementptr inbounds %struct.PGEvent, ptr %45, i64 %47
  %49 = getelementptr inbounds nuw %struct.PGEvent, ptr %48, i32 0, i32 2
  %50 = load ptr, ptr %49, align 8
  %51 = call i32 %42(i32 noundef 3, ptr noundef %9, ptr noundef %50)
  %52 = icmp ne i32 %51, 0
  br i1 %52, label %53, label %61

53:                                               ; preds = %30
  %54 = load ptr, ptr %5, align 8
  %55 = getelementptr inbounds nuw %struct.pg_result, ptr %54, i32 0, i32 11
  %56 = load ptr, ptr %55, align 8
  %57 = load i32, ptr %7, align 4
  %58 = sext i32 %57 to i64
  %59 = getelementptr inbounds %struct.PGEvent, ptr %56, i64 %58
  %60 = getelementptr inbounds nuw %struct.PGEvent, ptr %59, i32 0, i32 4
  store i8 1, ptr %60, align 8
  br label %62

61:                                               ; preds = %30
  store i32 0, ptr %6, align 4
  br label %62

62:                                               ; preds = %61, %53
  call void @llvm.lifetime.end.p0(i64 16, ptr %9) #5
  br label %63

63:                                               ; preds = %62, %20
  br label %64

64:                                               ; preds = %63
  %65 = load i32, ptr %7, align 4
  %66 = add i32 %65, 1
  store i32 %66, ptr %7, align 4
  br label %14, !llvm.loop !11

67:                                               ; preds = %14
  %68 = load i32, ptr %6, align 4
  store i32 %68, ptr %3, align 4
  store i32 1, ptr %8, align 4
  br label %69

69:                                               ; preds = %67, %12
  call void @llvm.lifetime.end.p0(i64 4, ptr %7) #5
  call void @llvm.lifetime.end.p0(i64 4, ptr %6) #5
  %70 = load i32, ptr %3, align 4
  ret i32 %70
}