; Function Attrs: nounwind uwtable
define range(i32 0, 2) i32 @PQfireResultCreateEvents(ptr noundef %0, ptr noundef %1) local_unnamed_addr #0 {
  %3 = alloca %struct.PGEventResultCreate, align 8
  %.not = icmp eq ptr %1, null
  br i1 %.not, label %.loopexit, label %.preheader

.preheader:                                       ; preds = %2
  %4 = getelementptr inbounds nuw i8, ptr %1, i64 152
  %5 = load i32, ptr %4, align 8
  %6 = icmp sgt i32 %5, 0
  br i1 %6, label %.lr.ph, label %.loopexit

.lr.ph:                                           ; preds = %.preheader
  %7 = getelementptr inbounds nuw i8, ptr %1, i64 144
  %8 = getelementptr inbounds nuw i8, ptr %3, i64 8
  br label %9

9:                                                ; preds = %.lr.ph, %25
  %10 = phi i32 [ %5, %.lr.ph ], [ %26, %25 ]
  %indvars.iv = phi i64 [ 0, %.lr.ph ], [ %indvars.iv.next, %25 ]
  %.01519 = phi i32 [ 1, %.lr.ph ], [ %.2, %25 ]
  %11 = load ptr, ptr %7, align 8
  %12 = getelementptr inbounds nuw %struct.PGEvent, ptr %11, i64 %indvars.iv, i32 4
  %13 = load i8, ptr %12, align 8, !range !9, !noundef !10
  %14 = trunc nuw i8 %13 to i1
  br i1 %14, label %25, label %15

15:                                               ; preds = %9
  call void @llvm.lifetime.start.p0(i64 16, ptr nonnull %3) #8
  store ptr %0, ptr %3, align 8
  store ptr %1, ptr %8, align 8
  %16 = getelementptr inbounds nuw %struct.PGEvent, ptr %11, i64 %indvars.iv
  %17 = load ptr, ptr %16, align 8
  %18 = getelementptr inbounds nuw i8, ptr %16, i64 16
  %19 = load ptr, ptr %18, align 8
  %20 = call i32 %17(i32 noundef 3, ptr noundef nonnull %3, ptr noundef %19) #8
  %.not18 = icmp eq i32 %20, 0
  br i1 %.not18, label %24, label %21

21:                                               ; preds = %15
  %22 = load ptr, ptr %7, align 8
  %23 = getelementptr inbounds nuw %struct.PGEvent, ptr %22, i64 %indvars.iv, i32 4
  store i8 1, ptr %23, align 8
  br label %24

24:                                               ; preds = %15, %21
  %.1 = phi i32 [ %.01519, %21 ], [ 0, %15 ]
  call void @llvm.lifetime.end.p0(i64 16, ptr nonnull %3) #8
  %.pre = load i32, ptr %4, align 8
  br label %25

25:                                               ; preds = %9, %24
  %26 = phi i32 [ %10, %9 ], [ %.pre, %24 ]
  %.2 = phi i32 [ %.01519, %9 ], [ %.1, %24 ]
  %indvars.iv.next = add nuw nsw i64 %indvars.iv, 1
  %27 = sext i32 %26 to i64
  %28 = icmp slt i64 %indvars.iv.next, %27
  br i1 %28, label %9, label %.loopexit, !llvm.loop !11

.loopexit:                                        ; preds = %25, %.preheader, %2
  %.016 = phi i32 [ 0, %2 ], [ 1, %.preheader ], [ %.2, %25 ]
  ret i32 %.016
}